target datalayout = "e-m:e-p270:32:32-p271:32:32-p272:64:64-i64:64-i128:128-f80:128-n8:16:32:64-S128"
target triple = "x86_64-pc-linux-gnu"

%class.Sample = type { ptr, ptr, ptr, ptr, ptr, i8, float, float, float, float, float, float, float, float, float, float, float, float, float, i32, i8, i8, i8, ptr, [9 x ptr], ptr, %class.SampleDebugDraw }
%class.SampleDebugDraw = type { %class.DebugDrawGL }
%class.DebugDrawGL = type { %struct.duDebugDraw }
%struct.duDebugDraw = type { ptr }
%class.InputGeom = type { ptr, ptr, [3 x float], [3 x float], %struct.BuildSettings, i8, [1536 x float], [256 x float], [256 x i8], [256 x i8], [256 x i16], [256 x i32], i32, [256 x %struct.ConvexVolume], i32 }
%struct.BuildSettings = type { float, float, float, float, float, float, float, float, float, float, float, float, float, i32, [3 x float], [3 x float], float }
%struct.ConvexVolume = type { [36 x float], float, float, i32, i32 }

@.str = private unnamed_addr constant [14 x i8] c"Rasterization\00", align 1
@.str.1 = private unnamed_addr constant [10 x i8] c"Cell Size\00", align 1
@.str.2 = private unnamed_addr constant [12 x i8] c"Cell Height\00", align 1
@.str.3 = private unnamed_addr constant [16 x i8] c"Voxels  %d x %d\00", align 1
@.str.4 = private unnamed_addr constant [6 x i8] c"Agent\00", align 1
@.str.5 = private unnamed_addr constant [7 x i8] c"Height\00", align 1
@.str.6 = private unnamed_addr constant [7 x i8] c"Radius\00", align 1
@.str.7 = private unnamed_addr constant [10 x i8] c"Max Climb\00", align 1
@.str.8 = private unnamed_addr constant [10 x i8] c"Max Slope\00", align 1
@.str.9 = private unnamed_addr constant [7 x i8] c"Region\00", align 1
@.str.10 = private unnamed_addr constant [16 x i8] c"Min Region Size\00", align 1
@.str.11 = private unnamed_addr constant [19 x i8] c"Merged Region Size\00", align 1
@.str.12 = private unnamed_addr constant [13 x i8] c"Partitioning\00", align 1
@.str.13 = private unnamed_addr constant [10 x i8] c"Watershed\00", align 1
@.str.14 = private unnamed_addr constant [9 x i8] c"Monotone\00", align 1
@.str.15 = private unnamed_addr constant [7 x i8] c"Layers\00", align 1
@.str.16 = private unnamed_addr constant [10 x i8] c"Filtering\00", align 1
@.str.17 = private unnamed_addr constant [22 x i8] c"Low Hanging Obstacles\00", align 1
@.str.18 = private unnamed_addr constant [12 x i8] c"Ledge Spans\00", align 1
@.str.19 = private unnamed_addr constant [26 x i8] c"Walkable Low Height Spans\00", align 1
@.str.20 = private unnamed_addr constant [15 x i8] c"Polygonization\00", align 1
@.str.21 = private unnamed_addr constant [16 x i8] c"Max Edge Length\00", align 1
@.str.22 = private unnamed_addr constant [15 x i8] c"Max Edge Error\00", align 1
@.str.23 = private unnamed_addr constant [15 x i8] c"Verts Per Poly\00", align 1
@.str.24 = private unnamed_addr constant [12 x i8] c"Detail Mesh\00", align 1
@.str.25 = private unnamed_addr constant [16 x i8] c"Sample Distance\00", align 1
@.str.26 = private unnamed_addr constant [17 x i8] c"Max Sample Error\00", align 1

; Function Attrs: mustprogress nounwind uwtable
define linkonce_odr dso_local noundef ptr @_ZNK9InputGeom19getNavMeshBoundsMaxEv(ptr noundef nonnull align 8 dereferenceable(50312) %0) #0 comdat align 2 {
  %2 = alloca ptr, align 8
  store ptr %0, ptr %2, align 8
  %3 = load ptr, ptr %2, align 8
  %4 = getelementptr inbounds %class.InputGeom, ptr %3, i32 0, i32 5
  %5 = load i8, ptr %4, align 4
  %6 = trunc i8 %5 to i1
  br i1 %6, label %7, label %10

7:                                                ; preds = %1
  %8 = getelementptr inbounds %class.InputGeom, ptr %3, i32 0, i32 4
  %9 = getelementptr inbounds %struct.BuildSettings, ptr %8, i32 0, i32 15
  br label %12

10:                                               ; preds = %1
  %11 = getelementptr inbounds %class.InputGeom, ptr %3, i32 0, i32 3
  br label %12

12:                                               ; preds = %10, %7
  %13 = phi ptr [ %9, %7 ], [ %11, %10 ]
  %14 = getelementptr inbounds [3 x float], ptr %13, i64 0, i64 0
  ret ptr %14
}

; Function Attrs: mustprogress nounwind uwtable
define linkonce_odr dso_local noundef ptr @_ZNK9InputGeom19getNavMeshBoundsMinEv(ptr noundef nonnull align 8 dereferenceable(50312) %0) #0 comdat align 2 {
  %2 = alloca ptr, align 8
  store ptr %0, ptr %2, align 8
  %3 = load ptr, ptr %2, align 8
  %4 = getelementptr inbounds %class.InputGeom, ptr %3, i32 0, i32 5
  %5 = load i8, ptr %4, align 4
  %6 = trunc i8 %5 to i1
  br i1 %6, label %7, label %10

7:                                                ; preds = %1
  %8 = getelementptr inbounds %class.InputGeom, ptr %3, i32 0, i32 4
  %9 = getelementptr inbounds %struct.BuildSettings, ptr %8, i32 0, i32 14
  br label %12

10:                                               ; preds = %1
  %11 = getelementptr inbounds %class.InputGeom, ptr %3, i32 0, i32 2
  br label %12

12:                                               ; preds = %10, %7
  %13 = phi ptr [ %9, %7 ], [ %11, %10 ]
  %14 = getelementptr inbounds [3 x float], ptr %13, i64 0, i64 0
  ret ptr %14
}

; Function Attrs: mustprogress uwtable
define dso_local void @_ZN6Sample20handleCommonSettingsEv(ptr noundef nonnull align 8 dereferenceable(200) %0) #2 align 2 {
  %2 = alloca ptr, align 8
  %3 = alloca ptr, align 8
  %4 = alloca ptr, align 8
  %5 = alloca i32, align 4
  %6 = alloca i32, align 4
  %7 = alloca [64 x i8], align 16
  store ptr %0, ptr %2, align 8
  %8 = load ptr, ptr %2, align 8
  call void @_Z10imguiLabelPKc(ptr noundef @.str)
  %9 = getelementptr inbounds %class.Sample, ptr %8, i32 0, i32 6
  %10 = call noundef zeroext i1 @_Z11imguiSliderPKcPffffb(ptr noundef @.str.1, ptr noundef %9, float noundef 0x3FB99999A0000000, float noundef 1.000000e+00, float noundef 0x3F847AE140000000, i1 noundef zeroext true)
  %11 = getelementptr inbounds %class.Sample, ptr %8, i32 0, i32 7
  %12 = call noundef zeroext i1 @_Z11imguiSliderPKcPffffb(ptr noundef @.str.2, ptr noundef %11, float noundef 0x3FB99999A0000000, float noundef 1.000000e+00, float noundef 0x3F847AE140000000, i1 noundef zeroext true)
  %13 = getelementptr inbounds %class.Sample, ptr %8, i32 0, i32 1
  %14 = load ptr, ptr %13, align 8
  %15 = icmp ne ptr %14, null
  br i1 %15, label %16, label %32

16:                                               ; preds = %1
  %17 = getelementptr inbounds %class.Sample, ptr %8, i32 0, i32 1
  %18 = load ptr, ptr %17, align 8
  %19 = call noundef ptr @_ZNK9InputGeom19getNavMeshBoundsMinEv(ptr noundef nonnull align 8 dereferenceable(50312) %18)
  store ptr %19, ptr %3, align 8
  %20 = getelementptr inbounds %class.Sample, ptr %8, i32 0, i32 1
  %21 = load ptr, ptr %20, align 8
  %22 = call noundef ptr @_ZNK9InputGeom19getNavMeshBoundsMaxEv(ptr noundef nonnull align 8 dereferenceable(50312) %21)
  store ptr %22, ptr %4, align 8
  store i32 0, ptr %5, align 4
  store i32 0, ptr %6, align 4
  %23 = load ptr, ptr %3, align 8
  %24 = load ptr, ptr %4, align 8
  %25 = getelementptr inbounds %class.Sample, ptr %8, i32 0, i32 6
  %26 = load float, ptr %25, align 4
  call void @_Z14rcCalcGridSizePKfS0_fPiS1_(ptr noundef %23, ptr noundef %24, float noundef %26, ptr noundef %5, ptr noundef %6)
  %27 = getelementptr inbounds [64 x i8], ptr %7, i64 0, i64 0
  %28 = load i32, ptr %5, align 4
  %29 = load i32, ptr %6, align 4
  %30 = call i32 (ptr, i64, ptr, ...) @snprintf(ptr noundef %27, i64 noundef 64, ptr noundef @.str.3, i32 noundef %28, i32 noundef %29) #10
  %31 = getelementptr inbounds [64 x i8], ptr %7, i64 0, i64 0
  call void @_Z10imguiValuePKc(ptr noundef %31)
  br label %32

32:                                               ; preds = %16, %1
  call void @_Z14imguiSeparatorv()
  call void @_Z10imguiLabelPKc(ptr noundef @.str.4)
  %33 = getelementptr inbounds %class.Sample, ptr %8, i32 0, i32 8
  %34 = call noundef zeroext i1 @_Z11imguiSliderPKcPffffb(ptr noundef @.str.5, ptr noundef %33, float noundef 0x3FB99999A0000000, float noundef 5.000000e+00, float noundef 0x3FB99999A0000000, i1 noundef zeroext true)
  %35 = getelementptr inbounds %class.Sample, ptr %8, i32 0, i32 9
  %36 = call noundef zeroext i1 @_Z11imguiSliderPKcPffffb(ptr noundef @.str.6, ptr noundef %35, float noundef 0.000000e+00, float noundef 5.000000e+00, float noundef 0x3FB99999A0000000, i1 noundef zeroext true)
  %37 = getelementptr inbounds %class.Sample, ptr %8, i32 0, i32 10
  %38 = call noundef zeroext i1 @_Z11imguiSliderPKcPffffb(ptr noundef @.str.7, ptr noundef %37, float noundef 0x3FB99999A0000000, float noundef 5.000000e+00, float noundef 0x3FB99999A0000000, i1 noundef zeroext true)
  %39 = getelementptr inbounds %class.Sample, ptr %8, i32 0, i32 11
  %40 = call noundef zeroext i1 @_Z11imguiSliderPKcPffffb(ptr noundef @.str.8, ptr noundef %39, float noundef 0.000000e+00, float noundef 9.000000e+01, float noundef 1.000000e+00, i1 noundef zeroext true)
  call void @_Z14imguiSeparatorv()
  call void @_Z10imguiLabelPKc(ptr noundef @.str.9)
  %41 = getelementptr inbounds %class.Sample, ptr %8, i32 0, i32 12
  %42 = call noundef zeroext i1 @_Z11imguiSliderPKcPffffb(ptr noundef @.str.10, ptr noundef %41, float noundef 0.000000e+00, float noundef 1.500000e+02, float noundef 1.000000e+00, i1 noundef zeroext true)
  %43 = getelementptr inbounds %class.Sample, ptr %8, i32 0, i32 13
  %44 = call noundef zeroext i1 @_Z11imguiSliderPKcPffffb(ptr noundef @.str.11, ptr noundef %43, float noundef 0.000000e+00, float noundef 1.500000e+02, float noundef 1.000000e+00, i1 noundef zeroext true)
  call void @_Z14imguiSeparatorv()
  call void @_Z10imguiLabelPKc(ptr noundef @.str.12)
  %45 = getelementptr inbounds %class.Sample, ptr %8, i32 0, i32 19
  %46 = load i32, ptr %45, align 8
  %47 = icmp eq i32 %46, 0
  %48 = call noundef zeroext i1 @_Z10imguiCheckPKcbb(ptr noundef @.str.13, i1 noundef zeroext %47, i1 noundef zeroext true)
  br i1 %48, label %49, label %51

49:                                               ; preds = %32
  %50 = getelementptr inbounds %class.Sample, ptr %8, i32 0, i32 19
  store i32 0, ptr %50, align 8
  br label %51

51:                                               ; preds = %49, %32
  %52 = getelementptr inbounds %class.Sample, ptr %8, i32 0, i32 19
  %53 = load i32, ptr %52, align 8
  %54 = icmp eq i32 %53, 1
  %55 = call noundef zeroext i1 @_Z10imguiCheckPKcbb(ptr noundef @.str.14, i1 noundef zeroext %54, i1 noundef zeroext true)
  br i1 %55, label %56, label %58

56:                                               ; preds = %51
  %57 = getelementptr inbounds %class.Sample, ptr %8, i32 0, i32 19
  store i32 1, ptr %57, align 8
  br label %58

58:                                               ; preds = %56, %51
  %59 = getelementptr inbounds %class.Sample, ptr %8, i32 0, i32 19
  %60 = load i32, ptr %59, align 8
  %61 = icmp eq i32 %60, 2
  %62 = call noundef zeroext i1 @_Z10imguiCheckPKcbb(ptr noundef @.str.15, i1 noundef zeroext %61, i1 noundef zeroext true)
  br i1 %62, label %63, label %65

63:                                               ; preds = %58
  %64 = getelementptr inbounds %class.Sample, ptr %8, i32 0, i32 19
  store i32 2, ptr %64, align 8
  br label %65

65:                                               ; preds = %63, %58
  call void @_Z14imguiSeparatorv()
  call void @_Z10imguiLabelPKc(ptr noundef @.str.16)
  %66 = getelementptr inbounds %class.Sample, ptr %8, i32 0, i32 20
  %67 = load i8, ptr %66, align 4
  %68 = trunc i8 %67 to i1
  %69 = call noundef zeroext i1 @_Z10imguiCheckPKcbb(ptr noundef @.str.17, i1 noundef zeroext %68, i1 noundef zeroext true)
  br i1 %69, label %70, label %77

70:                                               ; preds = %65
  %71 = getelementptr inbounds %class.Sample, ptr %8, i32 0, i32 20
  %72 = load i8, ptr %71, align 4
  %73 = trunc i8 %72 to i1
  %74 = xor i1 %73, true
  %75 = getelementptr inbounds %class.Sample, ptr %8, i32 0, i32 20
  %76 = zext i1 %74 to i8
  store i8 %76, ptr %75, align 4
  br label %77

77:                                               ; preds = %70, %65
  %78 = getelementptr inbounds %class.Sample, ptr %8, i32 0, i32 21
  %79 = load i8, ptr %78, align 1
  %80 = trunc i8 %79 to i1
  %81 = call noundef zeroext i1 @_Z10imguiCheckPKcbb(ptr noundef @.str.18, i1 noundef zeroext %80, i1 noundef zeroext true)
  br i1 %81, label %82, label %89

82:                                               ; preds = %77
  %83 = getelementptr inbounds %class.Sample, ptr %8, i32 0, i32 21
  %84 = load i8, ptr %83, align 1
  %85 = trunc i8 %84 to i1
  %86 = xor i1 %85, true
  %87 = getelementptr inbounds %class.Sample, ptr %8, i32 0, i32 21
  %88 = zext i1 %86 to i8
  store i8 %88, ptr %87, align 1
  br label %89

89:                                               ; preds = %82, %77
  %90 = getelementptr inbounds %class.Sample, ptr %8, i32 0, i32 22
  %91 = load i8, ptr %90, align 2
  %92 = trunc i8 %91 to i1
  %93 = call noundef zeroext i1 @_Z10imguiCheckPKcbb(ptr noundef @.str.19, i1 noundef zeroext %92, i1 noundef zeroext true)
  br i1 %93, label %94, label %101

94:                                               ; preds = %89
  %95 = getelementptr inbounds %class.Sample, ptr %8, i32 0, i32 22
  %96 = load i8, ptr %95, align 2
  %97 = trunc i8 %96 to i1
  %98 = xor i1 %97, true
  %99 = getelementptr inbounds %class.Sample, ptr %8, i32 0, i32 22
  %100 = zext i1 %98 to i8
  store i8 %100, ptr %99, align 2
  br label %101

101:                                              ; preds = %94, %89
  call void @_Z14imguiSeparatorv()
  call void @_Z10imguiLabelPKc(ptr noundef @.str.20)
  %102 = getelementptr inbounds %class.Sample, ptr %8, i32 0, i32 14
  %103 = call noundef zeroext i1 @_Z11imguiSliderPKcPffffb(ptr noundef @.str.21, ptr noundef %102, float noundef 0.000000e+00, float noundef 5.000000e+01, float noundef 1.000000e+00, i1 noundef zeroext true)
  %104 = getelementptr inbounds %class.Sample, ptr %8, i32 0, i32 15
  %105 = call noundef zeroext i1 @_Z11imguiSliderPKcPffffb(ptr noundef @.str.22, ptr noundef %104, float noundef 0x3FB99999A0000000, float noundef 3.000000e+00, float noundef 0x3FB99999A0000000, i1 noundef zeroext true)
  %106 = getelementptr inbounds %class.Sample, ptr %8, i32 0, i32 16
  %107 = call noundef zeroext i1 @_Z11imguiSliderPKcPffffb(ptr noundef @.str.23, ptr noundef %106, float noundef 3.000000e+00, float noundef 1.200000e+01, float noundef 1.000000e+00, i1 noundef zeroext true)
  call void @_Z14imguiSeparatorv()
  call void @_Z10imguiLabelPKc(ptr noundef @.str.24)
  %108 = getelementptr inbounds %class.Sample, ptr %8, i32 0, i32 17
  %109 = call noundef zeroext i1 @_Z11imguiSliderPKcPffffb(ptr noundef @.str.25, ptr noundef %108, float noundef 0.000000e+00, float noundef 1.600000e+01, float noundef 1.000000e+00, i1 noundef zeroext true)
  %110 = getelementptr inbounds %class.Sample, ptr %8, i32 0, i32 18
  %111 = call noundef zeroext i1 @_Z11imguiSliderPKcPffffb(ptr noundef @.str.26, ptr noundef %110, float noundef 0.000000e+00, float noundef 1.600000e+01, float noundef 1.000000e+00, i1 noundef zeroext true)
  call void @_Z14imguiSeparatorv()
  ret void
}