; Function Attrs: mustprogress uwtable
define dso_local void @_ZN6Sample20handleCommonSettingsEv(ptr noundef nonnull align 8 dereferenceable(200) %0) local_unnamed_addr #3 align 2 {
  %2 = alloca i32, align 4
  %3 = alloca i32, align 4
  %4 = alloca [64 x i8], align 16
  tail call void @_Z10imguiLabelPKc(ptr noundef nonnull @.str)
  %5 = getelementptr inbounds i8, ptr %0, i64 44
  %6 = tail call noundef zeroext i1 @_Z11imguiSliderPKcPffffb(ptr noundef nonnull @.str.1, ptr noundef nonnull %5, float noundef 0x3FB99999A0000000, float noundef 1.000000e+00, float noundef 0x3F847AE140000000, i1 noundef zeroext true)
  %7 = getelementptr inbounds i8, ptr %0, i64 48
  %8 = tail call noundef zeroext i1 @_Z11imguiSliderPKcPffffb(ptr noundef nonnull @.str.2, ptr noundef nonnull %7, float noundef 0x3FB99999A0000000, float noundef 1.000000e+00, float noundef 0x3F847AE140000000, i1 noundef zeroext true)
  %9 = getelementptr inbounds i8, ptr %0, i64 8
  %10 = load ptr, ptr %9, align 8
  %.not = icmp eq ptr %10, null
  br i1 %.not, label %21, label %11

11:                                               ; preds = %1
  %12 = getelementptr inbounds i8, ptr %10, i64 124
  %13 = load i8, ptr %12, align 4
  %14 = and i8 %13, 1
  %.not.i = icmp eq i8 %14, 0
  %.v.i = select i1 %.not.i, i64 16, i64 96
  %15 = getelementptr inbounds i8, ptr %10, i64 %.v.i
  %.v.i7 = select i1 %.not.i, i64 28, i64 108
  %16 = getelementptr inbounds i8, ptr %10, i64 %.v.i7
  store i32 0, ptr %2, align 4
  store i32 0, ptr %3, align 4
  %17 = load float, ptr %5, align 4
  call void @_Z14rcCalcGridSizePKfS0_fPiS1_(ptr noundef nonnull %15, ptr noundef nonnull %16, float noundef %17, ptr noundef nonnull %2, ptr noundef nonnull %3)
  %18 = load i32, ptr %2, align 4
  %19 = load i32, ptr %3, align 4
  %20 = call i32 (ptr, i64, ptr, ...) @snprintf(ptr noundef nonnull dereferenceable(1) %4, i64 noundef 64, ptr noundef nonnull @.str.3, i32 noundef %18, i32 noundef %19) #15
  call void @_Z10imguiValuePKc(ptr noundef nonnull %4)
  br label %21

21:                                               ; preds = %11, %1
  call void @_Z14imguiSeparatorv()
  call void @_Z10imguiLabelPKc(ptr noundef nonnull @.str.4)
  %22 = getelementptr inbounds i8, ptr %0, i64 52
  %23 = call noundef zeroext i1 @_Z11imguiSliderPKcPffffb(ptr noundef nonnull @.str.5, ptr noundef nonnull %22, float noundef 0x3FB99999A0000000, float noundef 5.000000e+00, float noundef 0x3FB99999A0000000, i1 noundef zeroext true)
  %24 = getelementptr inbounds i8, ptr %0, i64 56
  %25 = call noundef zeroext i1 @_Z11imguiSliderPKcPffffb(ptr noundef nonnull @.str.6, ptr noundef nonnull %24, float noundef 0.000000e+00, float noundef 5.000000e+00, float noundef 0x3FB99999A0000000, i1 noundef zeroext true)
  %26 = getelementptr inbounds i8, ptr %0, i64 60
  %27 = call noundef zeroext i1 @_Z11imguiSliderPKcPffffb(ptr noundef nonnull @.str.7, ptr noundef nonnull %26, float noundef 0x3FB99999A0000000, float noundef 5.000000e+00, float noundef 0x3FB99999A0000000, i1 noundef zeroext true)
  %28 = getelementptr inbounds i8, ptr %0, i64 64
  %29 = call noundef zeroext i1 @_Z11imguiSliderPKcPffffb(ptr noundef nonnull @.str.8, ptr noundef nonnull %28, float noundef 0.000000e+00, float noundef 9.000000e+01, float noundef 1.000000e+00, i1 noundef zeroext true)
  call void @_Z14imguiSeparatorv()
  call void @_Z10imguiLabelPKc(ptr noundef nonnull @.str.9)
  %30 = getelementptr inbounds i8, ptr %0, i64 68
  %31 = call noundef zeroext i1 @_Z11imguiSliderPKcPffffb(ptr noundef nonnull @.str.10, ptr noundef nonnull %30, float noundef 0.000000e+00, float noundef 1.500000e+02, float noundef 1.000000e+00, i1 noundef zeroext true)
  %32 = getelementptr inbounds i8, ptr %0, i64 72
  %33 = call noundef zeroext i1 @_Z11imguiSliderPKcPffffb(ptr noundef nonnull @.str.11, ptr noundef nonnull %32, float noundef 0.000000e+00, float noundef 1.500000e+02, float noundef 1.000000e+00, i1 noundef zeroext true)
  call void @_Z14imguiSeparatorv()
  call void @_Z10imguiLabelPKc(ptr noundef nonnull @.str.12)
  %34 = getelementptr inbounds i8, ptr %0, i64 96
  %35 = load i32, ptr %34, align 8
  %36 = icmp eq i32 %35, 0
  %37 = call noundef zeroext i1 @_Z10imguiCheckPKcbb(ptr noundef nonnull @.str.13, i1 noundef zeroext %36, i1 noundef zeroext true)
  br i1 %37, label %39, label %._crit_edge

._crit_edge:                                      ; preds = %21
  %.pre = load i32, ptr %34, align 8
  %38 = icmp eq i32 %.pre, 1
  br label %40

39:                                               ; preds = %21
  store i32 0, ptr %34, align 8
  br label %40

40:                                               ; preds = %._crit_edge, %39
  %41 = phi i1 [ %38, %._crit_edge ], [ false, %39 ]
  %42 = call noundef zeroext i1 @_Z10imguiCheckPKcbb(ptr noundef nonnull @.str.14, i1 noundef zeroext %41, i1 noundef zeroext true)
  br i1 %42, label %44, label %._crit_edge8

._crit_edge8:                                     ; preds = %40
  %.pre9 = load i32, ptr %34, align 8
  %43 = icmp eq i32 %.pre9, 2
  br label %45

44:                                               ; preds = %40
  store i32 1, ptr %34, align 8
  br label %45

45:                                               ; preds = %._crit_edge8, %44
  %46 = phi i1 [ %43, %._crit_edge8 ], [ false, %44 ]
  %47 = call noundef zeroext i1 @_Z10imguiCheckPKcbb(ptr noundef nonnull @.str.15, i1 noundef zeroext %46, i1 noundef zeroext true)
  br i1 %47, label %48, label %49

48:                                               ; preds = %45
  store i32 2, ptr %34, align 8
  br label %49

49:                                               ; preds = %48, %45
  call void @_Z14imguiSeparatorv()
  call void @_Z10imguiLabelPKc(ptr noundef nonnull @.str.16)
  %50 = getelementptr inbounds i8, ptr %0, i64 100
  %51 = load i8, ptr %50, align 4
  %52 = and i8 %51, 1
  %53 = icmp ne i8 %52, 0
  %54 = call noundef zeroext i1 @_Z10imguiCheckPKcbb(ptr noundef nonnull @.str.17, i1 noundef zeroext %53, i1 noundef zeroext true)
  br i1 %54, label %55, label %59

55:                                               ; preds = %49
  %56 = load i8, ptr %50, align 4
  %57 = and i8 %56, 1
  %58 = xor i8 %57, 1
  store i8 %58, ptr %50, align 4
  br label %59

59:                                               ; preds = %55, %49
  %60 = getelementptr inbounds i8, ptr %0, i64 101
  %61 = load i8, ptr %60, align 1
  %62 = and i8 %61, 1
  %63 = icmp ne i8 %62, 0
  %64 = call noundef zeroext i1 @_Z10imguiCheckPKcbb(ptr noundef nonnull @.str.18, i1 noundef zeroext %63, i1 noundef zeroext true)
  br i1 %64, label %65, label %69

65:                                               ; preds = %59
  %66 = load i8, ptr %60, align 1
  %67 = and i8 %66, 1
  %68 = xor i8 %67, 1
  store i8 %68, ptr %60, align 1
  br label %69

69:                                               ; preds = %65, %59
  %70 = getelementptr inbounds i8, ptr %0, i64 102
  %71 = load i8, ptr %70, align 2
  %72 = and i8 %71, 1
  %73 = icmp ne i8 %72, 0
  %74 = call noundef zeroext i1 @_Z10imguiCheckPKcbb(ptr noundef nonnull @.str.19, i1 noundef zeroext %73, i1 noundef zeroext true)
  br i1 %74, label %75, label %79

75:                                               ; preds = %69
  %76 = load i8, ptr %70, align 2
  %77 = and i8 %76, 1
  %78 = xor i8 %77, 1
  store i8 %78, ptr %70, align 2
  br label %79

79:                                               ; preds = %75, %69
  call void @_Z14imguiSeparatorv()
  call void @_Z10imguiLabelPKc(ptr noundef nonnull @.str.20)
  %80 = getelementptr inbounds i8, ptr %0, i64 76
  %81 = call noundef zeroext i1 @_Z11imguiSliderPKcPffffb(ptr noundef nonnull @.str.21, ptr noundef nonnull %80, float noundef 0.000000e+00, float noundef 5.000000e+01, float noundef 1.000000e+00, i1 noundef zeroext true)
  %82 = getelementptr inbounds i8, ptr %0, i64 80
  %83 = call noundef zeroext i1 @_Z11imguiSliderPKcPffffb(ptr noundef nonnull @.str.22, ptr noundef nonnull %82, float noundef 0x3FB99999A0000000, float noundef 3.000000e+00, float noundef 0x3FB99999A0000000, i1 noundef zeroext true)
  %84 = getelementptr inbounds i8, ptr %0, i64 84
  %85 = call noundef zeroext i1 @_Z11imguiSliderPKcPffffb(ptr noundef nonnull @.str.23, ptr noundef nonnull %84, float noundef 3.000000e+00, float noundef 1.200000e+01, float noundef 1.000000e+00, i1 noundef zeroext true)
  call void @_Z14imguiSeparatorv()
  call void @_Z10imguiLabelPKc(ptr noundef nonnull @.str.24)
  %86 = getelementptr inbounds i8, ptr %0, i64 88
  %87 = call noundef zeroext i1 @_Z11imguiSliderPKcPffffb(ptr noundef nonnull @.str.25, ptr noundef nonnull %86, float noundef 0.000000e+00, float noundef 1.600000e+01, float noundef 1.000000e+00, i1 noundef zeroext true)
  %88 = getelementptr inbounds i8, ptr %0, i64 92
  %89 = call noundef zeroext i1 @_Z11imguiSliderPKcPffffb(ptr noundef nonnull @.str.26, ptr noundef nonnull %88, float noundef 0.000000e+00, float noundef 1.600000e+01, float noundef 1.000000e+00, i1 noundef zeroext true)
  call void @_Z14imguiSeparatorv()
  ret void
}